target datalayout = "e-m:e-p270:32:32-p271:32:32-p272:64:64-i64:64-i128:128-f80:128-n8:16:32:64-S128"
target triple = "x86_64-pc-linux-gnu"

; Function Attrs: nounwind uwtable
define internal i32 @ParseBase64(ptr noundef %0, ptr noundef %1, ptr noundef %2) #0 {
  %4 = alloca i32, align 4
  %5 = alloca ptr, align 8
  %6 = alloca ptr, align 8
  %7 = alloca ptr, align 8
  %8 = alloca i64, align 8
  %9 = alloca i64, align 8
  %10 = alloca i64, align 8
  %11 = alloca i64, align 8
  %12 = alloca i32, align 4
  %13 = alloca i64, align 8
  %14 = alloca i64, align 8
  %15 = alloca i8, align 1
  %16 = alloca i32, align 4
  %17 = alloca i32, align 4
  store ptr %0, ptr %5, align 8, !tbaa !56
  store ptr %1, ptr %6, align 8, !tbaa !56
  store ptr %2, ptr %7, align 8, !tbaa !72
  call void @llvm.lifetime.start.p0(i64 8, ptr %8) #8
  %18 = load ptr, ptr %5, align 8, !tbaa !56
  %19 = call i64 @strlen(ptr noundef %18) #9
  store i64 %19, ptr %8, align 8, !tbaa !52
  call void @llvm.lifetime.start.p0(i64 8, ptr %9) #8
  %20 = load ptr, ptr %7, align 8, !tbaa !72
  %21 = load i64, ptr %20, align 8, !tbaa !52
  store i64 %21, ptr %9, align 8, !tbaa !52
  call void @llvm.lifetime.start.p0(i64 8, ptr %10) #8
  call void @llvm.lifetime.start.p0(i64 8, ptr %11) #8
  store i64 0, ptr %11, align 8, !tbaa !52
  call void @llvm.lifetime.start.p0(i64 4, ptr %12) #8
  store i32 0, ptr %12, align 4, !tbaa !4
  call void @llvm.lifetime.start.p0(i64 8, ptr %13) #8
  store i64 0, ptr %13, align 8, !tbaa !52
  call void @llvm.lifetime.start.p0(i64 8, ptr %14) #8
  store i64 0, ptr %14, align 8, !tbaa !52
  store i64 0, ptr %10, align 8, !tbaa !52
  br label %22

22:                                               ; preds = %150, %3
  %23 = load i64, ptr %10, align 8, !tbaa !52
  %24 = load i64, ptr %8, align 8, !tbaa !52
  %25 = icmp ult i64 %23, %24
  br i1 %25, label %26, label %153

26:                                               ; preds = %22
  call void @llvm.lifetime.start.p0(i64 1, ptr %15) #8
  %27 = load ptr, ptr %5, align 8, !tbaa !56
  %28 = load i64, ptr %10, align 8, !tbaa !52
  %29 = getelementptr inbounds nuw i8, ptr %27, i64 %28
  %30 = load i8, ptr %29, align 1, !tbaa !58
  store i8 %30, ptr %15, align 1, !tbaa !58
  call void @llvm.lifetime.start.p0(i64 4, ptr %16) #8
  store i32 0, ptr %16, align 4, !tbaa !4
  %31 = load i8, ptr %15, align 1, !tbaa !58
  %32 = sext i8 %31 to i32
  %33 = icmp eq i32 %32, 9
  br i1 %33, label %46, label %34

34:                                               ; preds = %26
  %35 = load i8, ptr %15, align 1, !tbaa !58
  %36 = sext i8 %35 to i32
  %37 = icmp eq i32 %36, 10
  br i1 %37, label %46, label %38

38:                                               ; preds = %34
  %39 = load i8, ptr %15, align 1, !tbaa !58
  %40 = sext i8 %39 to i32
  %41 = icmp eq i32 %40, 13
  br i1 %41, label %46, label %42

42:                                               ; preds = %38
  %43 = load i8, ptr %15, align 1, !tbaa !58
  %44 = sext i8 %43 to i32
  %45 = icmp eq i32 %44, 32
  br i1 %45, label %46, label %47

46:                                               ; preds = %42, %38, %34, %26
  store i32 4, ptr %17, align 4
  br label %147

47:                                               ; preds = %42
  %48 = load i8, ptr %15, align 1, !tbaa !58
  %49 = sext i8 %48 to i32
  %50 = icmp eq i32 %49, 61
  br i1 %50, label %51, label %54

51:                                               ; preds = %47
  %52 = load i64, ptr %13, align 8, !tbaa !52
  %53 = add i64 %52, 1
  store i64 %53, ptr %13, align 8, !tbaa !52
  store i32 4, ptr %17, align 4
  br label %147

54:                                               ; preds = %47
  %55 = load i64, ptr %13, align 8, !tbaa !52
  %56 = icmp ne i64 %55, 0
  br i1 %56, label %57, label %58

57:                                               ; preds = %54
  store i32 0, ptr %4, align 4
  store i32 1, ptr %17, align 4
  br label %147

58:                                               ; preds = %54
  %59 = load i8, ptr %15, align 1, !tbaa !58
  %60 = sext i8 %59 to i32
  %61 = icmp eq i32 %60, 43
  br i1 %61, label %66, label %62

62:                                               ; preds = %58
  %63 = load i8, ptr %15, align 1, !tbaa !58
  %64 = sext i8 %63 to i32
  %65 = icmp eq i32 %64, 45
  br i1 %65, label %66, label %67

66:                                               ; preds = %62, %58
  store i32 62, ptr %16, align 4, !tbaa !4
  br label %119

67:                                               ; preds = %62
  %68 = load i8, ptr %15, align 1, !tbaa !58
  %69 = sext i8 %68 to i32
  %70 = icmp eq i32 %69, 47
  br i1 %70, label %75, label %71

71:                                               ; preds = %67
  %72 = load i8, ptr %15, align 1, !tbaa !58
  %73 = sext i8 %72 to i32
  %74 = icmp eq i32 %73, 95
  br i1 %74, label %75, label %76

75:                                               ; preds = %71, %67
  store i32 63, ptr %16, align 4, !tbaa !4
  br label %118

76:                                               ; preds = %71
  %77 = load i8, ptr %15, align 1, !tbaa !58
  %78 = sext i8 %77 to i32
  %79 = icmp sge i32 %78, 65
  br i1 %79, label %80, label %88

80:                                               ; preds = %76
  %81 = load i8, ptr %15, align 1, !tbaa !58
  %82 = sext i8 %81 to i32
  %83 = icmp sle i32 %82, 90
  br i1 %83, label %84, label %88

84:                                               ; preds = %80
  %85 = load i8, ptr %15, align 1, !tbaa !58
  %86 = sext i8 %85 to i32
  %87 = sub nsw i32 %86, 65
  store i32 %87, ptr %16, align 4, !tbaa !4
  br label %117

88:                                               ; preds = %80, %76
  %89 = load i8, ptr %15, align 1, !tbaa !58
  %90 = sext i8 %89 to i32
  %91 = icmp sge i32 %90, 97
  br i1 %91, label %92, label %101

92:                                               ; preds = %88
  %93 = load i8, ptr %15, align 1, !tbaa !58
  %94 = sext i8 %93 to i32
  %95 = icmp sle i32 %94, 122
  br i1 %95, label %96, label %101

96:                                               ; preds = %92
  %97 = load i8, ptr %15, align 1, !tbaa !58
  %98 = sext i8 %97 to i32
  %99 = sub nsw i32 %98, 97
  %100 = add nsw i32 %99, 26
  store i32 %100, ptr %16, align 4, !tbaa !4
  br label %116

101:                                              ; preds = %92, %88
  %102 = load i8, ptr %15, align 1, !tbaa !58
  %103 = sext i8 %102 to i32
  %104 = icmp sge i32 %103, 48
  br i1 %104, label %105, label %114

105:                                              ; preds = %101
  %106 = load i8, ptr %15, align 1, !tbaa !58
  %107 = sext i8 %106 to i32
  %108 = icmp sle i32 %107, 57
  br i1 %108, label %109, label %114

109:                                              ; preds = %105
  %110 = load i8, ptr %15, align 1, !tbaa !58
  %111 = sext i8 %110 to i32
  %112 = sub nsw i32 %111, 48
  %113 = add nsw i32 %112, 52
  store i32 %113, ptr %16, align 4, !tbaa !4
  br label %115

114:                                              ; preds = %105, %101
  store i32 0, ptr %4, align 4
  store i32 1, ptr %17, align 4
  br label %147

115:                                              ; preds = %109
  br label %116

116:                                              ; preds = %115, %96
  br label %117

117:                                              ; preds = %116, %84
  br label %118

118:                                              ; preds = %117, %75
  br label %119

119:                                              ; preds = %118, %66
  %120 = load i32, ptr %12, align 4, !tbaa !4
  %121 = shl i32 %120, 6
  %122 = load i32, ptr %16, align 4, !tbaa !4
  %123 = or i32 %121, %122
  store i32 %123, ptr %12, align 4, !tbaa !4
  %124 = load i64, ptr %11, align 8, !tbaa !52
  %125 = add i64 %124, 6
  store i64 %125, ptr %11, align 8, !tbaa !52
  %126 = load i64, ptr %11, align 8, !tbaa !52
  %127 = icmp uge i64 %126, 8
  br i1 %127, label %128, label %146

128:                                              ; preds = %119
  %129 = load i64, ptr %14, align 8, !tbaa !52
  %130 = load i64, ptr %9, align 8, !tbaa !52
  %131 = icmp eq i64 %129, %130
  br i1 %131, label %132, label %133

132:                                              ; preds = %128
  store i32 0, ptr %4, align 4
  store i32 1, ptr %17, align 4
  br label %147

133:                                              ; preds = %128
  %134 = load i64, ptr %11, align 8, !tbaa !52
  %135 = sub i64 %134, 8
  store i64 %135, ptr %11, align 8, !tbaa !52
  %136 = load i32, ptr %12, align 4, !tbaa !4
  %137 = load i64, ptr %11, align 8, !tbaa !52
  %138 = trunc i64 %137 to i32
  %139 = lshr i32 %136, %138
  %140 = and i32 %139, 255
  %141 = trunc i32 %140 to i8
  %142 = load ptr, ptr %6, align 8, !tbaa !56
  %143 = load i64, ptr %14, align 8, !tbaa !52
  %144 = add i64 %143, 1
  store i64 %144, ptr %14, align 8, !tbaa !52
  %145 = getelementptr inbounds nuw i8, ptr %142, i64 %143
  store i8 %141, ptr %145, align 1, !tbaa !58
  br label %146

146:                                              ; preds = %133, %119
  store i32 0, ptr %17, align 4
  br label %147

147:                                              ; preds = %146, %132, %114, %57, %51, %46
  call void @llvm.lifetime.end.p0(i64 4, ptr %16) #8
  call void @llvm.lifetime.end.p0(i64 1, ptr %15) #8
  %148 = load i32, ptr %17, align 4
  switch i32 %148, label %160 [
    i32 0, label %149
    i32 4, label %150
  ]

149:                                              ; preds = %147
  br label %150

150:                                              ; preds = %149, %147
  %151 = load i64, ptr %10, align 8, !tbaa !52
  %152 = add i64 %151, 1
  store i64 %152, ptr %10, align 8, !tbaa !52
  br label %22, !llvm.loop !74

153:                                              ; preds = %22
  %154 = load i64, ptr %13, align 8, !tbaa !52
  %155 = icmp ugt i64 %154, 2
  br i1 %155, label %156, label %157

156:                                              ; preds = %153
  store i32 0, ptr %4, align 4
  store i32 1, ptr %17, align 4
  br label %160

157:                                              ; preds = %153
  %158 = load i64, ptr %14, align 8, !tbaa !52
  %159 = load ptr, ptr %7, align 8, !tbaa !72
  store i64 %158, ptr %159, align 8, !tbaa !52
  store i32 1, ptr %4, align 4
  store i32 1, ptr %17, align 4
  br label %160

160:                                              ; preds = %157, %156, %147
  call void @llvm.lifetime.end.p0(i64 8, ptr %14) #8
  call void @llvm.lifetime.end.p0(i64 8, ptr %13) #8
  call void @llvm.lifetime.end.p0(i64 4, ptr %12) #8
  call void @llvm.lifetime.end.p0(i64 8, ptr %11) #8
  call void @llvm.lifetime.end.p0(i64 8, ptr %10) #8
  call void @llvm.lifetime.end.p0(i64 8, ptr %9) #8
  call void @llvm.lifetime.end.p0(i64 8, ptr %8) #8
  %161 = load i32, ptr %4, align 4
  ret i32 %161
}