; Function Attrs: nofree nounwind memory(argmem: readwrite) uwtable
define internal fastcc range(i32 0, 2) i32 @ParseBase64(ptr noundef readonly captures(none) %0, ptr noundef nonnull writeonly captures(none) %1, ptr noundef nonnull captures(none) %2) unnamed_addr #9 {
  %4 = tail call i64 @strlen(ptr noundef nonnull dereferenceable(1) %0) #22
  %5 = load i64, ptr %2, align 8, !tbaa !39
  %.not98 = icmp eq i64 %4, 0
  br i1 %.not98, label %._crit_edge.thread, label %.lr.ph

.lr.ph:                                           ; preds = %3, %39
  %.06796 = phi i64 [ %.168.ph, %39 ], [ 0, %3 ]
  %.07095 = phi i64 [ %.171.ph, %39 ], [ 0, %3 ]
  %.07294 = phi i32 [ %.173.ph, %39 ], [ 0, %3 ]
  %.07493 = phi i64 [ %.175.ph, %39 ], [ 0, %3 ]
  %.07792 = phi i64 [ %40, %39 ], [ 0, %3 ]
  %6 = getelementptr inbounds nuw i8, ptr %0, i64 %.07792
  %7 = load i8, ptr %6, align 1, !tbaa !27
  %8 = sext i8 %7 to i32
  switch i8 %7, label %11 [
    i8 32, label %39
    i8 13, label %39
    i8 10, label %39
    i8 9, label %39
    i8 61, label %9
  ]

9:                                                ; preds = %.lr.ph
  %10 = add i64 %.07095, 1
  br label %39

11:                                               ; preds = %.lr.ph
  %.not = icmp eq i64 %.07095, 0
  br i1 %.not, label %12, label %.loopexit

12:                                               ; preds = %11
  switch i8 %7, label %13 [
    i8 45, label %25
    i8 43, label %25
    i8 95, label %.fold.split
    i8 47, label %.fold.split
  ]

13:                                               ; preds = %12
  %14 = add i8 %7, -65
  %or.cond17 = icmp ult i8 %14, 26
  br i1 %or.cond17, label %15, label %17

15:                                               ; preds = %13
  %16 = add nsw i32 %8, -65
  br label %25

17:                                               ; preds = %13
  %18 = add i8 %7, -97
  %or.cond20 = icmp ult i8 %18, 26
  br i1 %or.cond20, label %19, label %21

19:                                               ; preds = %17
  %20 = add nsw i32 %8, -71
  br label %25

21:                                               ; preds = %17
  %22 = add i8 %7, -48
  %or.cond23 = icmp ult i8 %22, 10
  br i1 %or.cond23, label %23, label %.loopexit

23:                                               ; preds = %21
  %24 = add nuw nsw i32 %8, 4
  br label %25

.fold.split:                                      ; preds = %12, %12
  br label %25

25:                                               ; preds = %12, %12, %.fold.split, %19, %23, %15
  %.065 = phi i32 [ %16, %15 ], [ %20, %19 ], [ %24, %23 ], [ 62, %12 ], [ 62, %12 ], [ 63, %.fold.split ]
  %26 = shl i32 %.07294, 6
  %27 = or i32 %.065, %26
  %28 = add i64 %.07493, 6
  %29 = icmp ugt i64 %28, 7
  br i1 %29, label %30, label %39

30:                                               ; preds = %25
  %31 = icmp eq i64 %.06796, %5
  br i1 %31, label %.loopexit, label %32

32:                                               ; preds = %30
  %33 = add i64 %.07493, -2
  %34 = trunc i64 %33 to i32
  %35 = lshr i32 %27, %34
  %36 = trunc i32 %35 to i8
  %37 = add i64 %.06796, 1
  %38 = getelementptr inbounds nuw i8, ptr %1, i64 %.06796
  store i8 %36, ptr %38, align 1, !tbaa !27
  br label %39

39:                                               ; preds = %9, %.lr.ph, %.lr.ph, %.lr.ph, %.lr.ph, %32, %25
  %.175.ph = phi i64 [ %28, %25 ], [ %33, %32 ], [ %.07493, %.lr.ph ], [ %.07493, %.lr.ph ], [ %.07493, %.lr.ph ], [ %.07493, %.lr.ph ], [ %.07493, %9 ]
  %.173.ph = phi i32 [ %27, %25 ], [ %27, %32 ], [ %.07294, %.lr.ph ], [ %.07294, %.lr.ph ], [ %.07294, %.lr.ph ], [ %.07294, %.lr.ph ], [ %.07294, %9 ]
  %.171.ph = phi i64 [ 0, %25 ], [ 0, %32 ], [ %.07095, %.lr.ph ], [ %.07095, %.lr.ph ], [ %.07095, %.lr.ph ], [ %.07095, %.lr.ph ], [ %10, %9 ]
  %.168.ph = phi i64 [ %.06796, %25 ], [ %37, %32 ], [ %.06796, %.lr.ph ], [ %.06796, %.lr.ph ], [ %.06796, %.lr.ph ], [ %.06796, %.lr.ph ], [ %.06796, %9 ]
  %40 = add nuw i64 %.07792, 1
  %exitcond.not = icmp eq i64 %40, %4
  br i1 %exitcond.not, label %._crit_edge, label %.lr.ph, !llvm.loop !38

._crit_edge:                                      ; preds = %39
  %41 = icmp ugt i64 %.171.ph, 2
  br i1 %41, label %.loopexit, label %._crit_edge.thread

._crit_edge.thread:                               ; preds = %3, %._crit_edge
  %.067.lcssa101 = phi i64 [ %.168.ph, %._crit_edge ], [ 0, %3 ]
  store i64 %.067.lcssa101, ptr %2, align 8, !tbaa !39
  br label %.loopexit

.loopexit:                                        ; preds = %11, %21, %30, %._crit_edge, %._crit_edge.thread
  %.2 = phi i32 [ 1, %._crit_edge.thread ], [ 0, %._crit_edge ], [ 0, %30 ], [ 0, %21 ], [ 0, %11 ]
  ret i32 %.2
}